; Function Attrs: mustprogress nofree norecurse nosync nounwind willreturn memory(argmem: readwrite) uwtable
define dso_local noundef zeroext i1 @_ZN4llvm10tryGreaterEiiRNS_20GenericSchedulerBase14SchedCandidateES2_NS0_10CandReasonE(i32 noundef %0, i32 noundef %1, ptr noundef nonnull writeonly align 8 captures(none) dereferenceable(48) %2, ptr noundef nonnull align 8 captures(none) dereferenceable(48) %3, i8 noundef zeroext %4) local_unnamed_addr #10 {
  %6 = icmp sgt i32 %0, %1
  br i1 %6, label %7, label %9

7:                                                ; preds = %5
  %8 = getelementptr inbounds nuw i8, ptr %2, i64 24
  store i8 %4, ptr %8, align 8
  br label %16

9:                                                ; preds = %5
  %10 = icmp slt i32 %0, %1
  br i1 %10, label %11, label %16

11:                                               ; preds = %9
  %12 = getelementptr inbounds nuw i8, ptr %3, i64 24
  %13 = load i8, ptr %12, align 8
  %14 = icmp ugt i8 %13, %4
  br i1 %14, label %15, label %16

15:                                               ; preds = %11
  store i8 %4, ptr %12, align 8
  br label %16

16:                                               ; preds = %9, %11, %15, %7
  %.0 = phi i1 [ true, %7 ], [ true, %15 ], [ true, %11 ], [ false, %9 ]
  ret i1 %.0
}